; Function Attrs: mustprogress uwtable
define void @_ZN8proxygen16QPACKHeaderTable6addRefEj(ptr noundef nonnull align 8 dereferenceable(104) %this, i32 noundef %absIndex) local_unnamed_addr #3 align 2 personality ptr @__gxx_personality_v0 {
entry:
  %ref.tmp2 = alloca %"class.google::LogMessageFatal", align 8
  %refCount_ = getelementptr inbounds i8, ptr %this, i64 96
  %0 = load ptr, ptr %refCount_, align 8
  %cmp.i.not = icmp eq ptr %0, null
  br i1 %cmp.i.not, label %cond.false, label %cleanup.done

cond.false:                                       ; preds = %entry
  call void @_ZN6google15LogMessageFatalC1EPKci(ptr noundef nonnull align 8 dereferenceable(96) %ref.tmp2, ptr noundef nonnull @.str, i32 noundef 259)
  %call3 = invoke noundef nonnull align 8 dereferenceable(8) ptr @_ZN6google10LogMessage6streamEv(ptr noundef nonnull align 8 dereferenceable(96) %ref.tmp2)
          to label %invoke.cont unwind label %lpad

invoke.cont:                                      ; preds = %cond.false
  %call5 = invoke noundef nonnull align 8 dereferenceable(8) ptr @_ZStlsISt11char_traitsIcEERSt13basic_ostreamIcT_ES5_PKc(ptr noundef nonnull align 8 dereferenceable(8) %call3, ptr noundef nonnull @.str.18)
          to label %cleanup.action unwind label %lpad

cleanup.action:                                   ; preds = %invoke.cont
  call void @_ZN6google15LogMessageFatalD1Ev(ptr noundef nonnull align 8 dereferenceable(96) %ref.tmp2) #29
  unreachable

lpad:                                             ; preds = %invoke.cont, %cond.false
  %1 = landingpad { ptr, i32 }
          cleanup
  call void @_ZN6google15LogMessageFatalD1Ev(ptr noundef nonnull align 8 dereferenceable(96) %ref.tmp2) #29
  unreachable

cleanup.done:                                     ; preds = %entry
  %call.i = tail call noundef i32 @_ZNK8proxygen16QPACKHeaderTable18absoluteToRelativeEj(ptr noundef nonnull align 8 dereferenceable(104) %this, i32 noundef %absIndex)
  %call2.i.i = tail call noundef i32 @_ZNK8proxygen11HeaderTable10toInternalEj(ptr noundef nonnull align 8 dereferenceable(80) %this, i32 noundef %call.i)
  %conv = zext i32 %call2.i.i to i64
  %2 = load ptr, ptr %0, align 8
  %add.ptr.i = getelementptr inbounds i16, ptr %2, i64 %conv
  %3 = load i16, ptr %add.ptr.i, align 2
  %inc = add i16 %3, 1
  store i16 %inc, ptr %add.ptr.i, align 2
  ret void
}